; Function Attrs: mustprogress uwtable
define dso_local void @_ZN17cmScriptGenerator16CreateConfigTestERKNSt7__cxx1112basic_stringIcSt11char_traitsIcESaIcEEE(ptr dead_on_unwind noalias writable sret(%"class.std::__cxx11::basic_string") align 8 %0, ptr noundef nonnull align 8 dereferenceable(105) %1, ptr noundef nonnull align 8 dereferenceable(32) %2) local_unnamed_addr #5 align 2 personality ptr @__gxx_personality_v0 {
  %4 = alloca [2 x %"struct.std::pair"], align 8
  %5 = getelementptr inbounds i8, ptr %1, i64 8
  call void @llvm.lifetime.start.p0(i64 48, ptr nonnull %4)
  %6 = tail call { i64, ptr } @_ZNKSt7__cxx1112basic_stringIcSt11char_traitsIcESaIcEEcvSt17basic_string_viewIcS2_EEv(ptr noundef nonnull align 8 dereferenceable(32) %5) #11, !noalias !7
  %7 = extractvalue { i64, ptr } %6, 0
  %8 = extractvalue { i64, ptr } %6, 1
  store i64 %7, ptr %4, align 8, !alias.scope !10, !noalias !7
  %.sroa.2.0..sroa_idx.i.i = getelementptr inbounds i8, ptr %4, i64 8
  store ptr %8, ptr %.sroa.2.0..sroa_idx.i.i, align 8, !alias.scope !10, !noalias !7
  %9 = getelementptr inbounds i8, ptr %4, i64 16
  store ptr null, ptr %9, align 8, !alias.scope !10, !noalias !7
  %10 = getelementptr inbounds i8, ptr %4, i64 24
  store i64 12, ptr %10, align 8, !alias.scope !13, !noalias !7
  %.sroa.2.0..sroa_idx.i6.i = getelementptr inbounds i8, ptr %4, i64 32
  store ptr @.str, ptr %.sroa.2.0..sroa_idx.i6.i, align 8, !alias.scope !13, !noalias !7
  %11 = getelementptr inbounds i8, ptr %4, i64 40
  store ptr null, ptr %11, align 8, !alias.scope !13, !noalias !7
  call void @_Z10cmCatViewsSt16initializer_listISt4pairISt17basic_string_viewIcSt11char_traitsIcEEPNSt7__cxx1112basic_stringIcS3_SaIcEEEEE(ptr dead_on_unwind writable sret(%"class.std::__cxx11::basic_string") align 8 %0, ptr nonnull %4, i64 2)
  call void @llvm.lifetime.end.p0(i64 48, ptr nonnull %4)
  %12 = call noundef zeroext i1 @_ZNKSt7__cxx1112basic_stringIcSt11char_traitsIcESaIcEE5emptyEv(ptr noundef nonnull align 8 dereferenceable(32) %2) #11
  br i1 %12, label %16, label %13

13:                                               ; preds = %3
  invoke fastcc void @_ZL29cmScriptGeneratorEncodeConfigRKNSt7__cxx1112basic_stringIcSt11char_traitsIcESaIcEEERS4_(ptr noundef nonnull align 8 dereferenceable(32) %2, ptr noundef nonnull align 8 dereferenceable(32) %0)
          to label %16 unwind label %14

14:                                               ; preds = %16, %13
  %15 = landingpad { ptr, i32 }
          cleanup
  call void @_ZNSt7__cxx1112basic_stringIcSt11char_traitsIcESaIcEED1Ev(ptr noundef nonnull align 8 dereferenceable(32) %0) #11
  resume { ptr, i32 } %15

16:                                               ; preds = %13, %3
  %17 = invoke noundef nonnull align 8 dereferenceable(32) ptr @_ZNSt7__cxx1112basic_stringIcSt11char_traitsIcESaIcEEpLEPKc(ptr noundef nonnull align 8 dereferenceable(32) %0, ptr noundef nonnull @.str.1)
          to label %18 unwind label %14

18:                                               ; preds = %16
  ret void
}